; Function Attrs: mustprogress uwtable
define void @_ZN3gmx7OptionsC2Ev(ptr noundef nonnull align 8 dereferenceable(16) initializes((0, 8)) %0) unnamed_addr #5 align 2 personality ptr @__gxx_personality_v0 {
  store ptr getelementptr inbounds nuw inrange(-16, 40) (i8, ptr @_ZTVN3gmx7OptionsE, i64 16), ptr %0, align 8, !tbaa !10
  %2 = invoke noalias noundef nonnull dereferenceable(232) ptr @_Znwm(i64 noundef 232) #30
          to label %3 unwind label %6

3:                                                ; preds = %1
  invoke void @_ZN3gmx8internal11OptionsImplC1Ev(ptr noundef nonnull align 8 dereferenceable(232) %2)
          to label %4 unwind label %8

4:                                                ; preds = %3
  %5 = getelementptr inbounds nuw i8, ptr %0, i64 8
  store ptr %2, ptr %5, align 8, !tbaa !141
  ret void

6:                                                ; preds = %1
  %7 = landingpad { ptr, i32 }
          cleanup
  br label %10

8:                                                ; preds = %3
  %9 = landingpad { ptr, i32 }
          cleanup
  tail call void @_ZdlPvm(ptr noundef nonnull %2, i64 noundef 232) #27
  br label %10

10:                                               ; preds = %8, %6
  %.pn = phi { ptr, i32 } [ %9, %8 ], [ %7, %6 ]
  tail call void @_ZN3gmx29IOptionsContainerWithSectionsD2Ev(ptr noundef nonnull align 8 dereferenceable(8) %0) #26
  resume { ptr, i32 } %.pn
}